; Function Attrs: mustprogress nofree norecurse nosync nounwind willreturn memory(read, inaccessiblemem: none) uwtable
define hidden noundef zeroext i1 @_ZNK3ue211ue2_literal10any_nocaseEv(ptr noundef nonnull readonly align 8 captures(none) dereferenceable(64) %0) local_unnamed_addr #4 align 2 {
  %2 = getelementptr inbounds nuw i8, ptr %0, i64 32
  %3 = getelementptr inbounds nuw i8, ptr %0, i64 40
  %4 = load ptr, ptr %3, align 8
  %5 = load ptr, ptr %2, align 8
  %.not78.not.i = icmp eq ptr %4, %5
  br i1 %.not78.not.i, label %_ZNK5boost14dynamic_bitsetImSaImEE3anyEv.exit, label %.lr.ph.preheader.i

.lr.ph.preheader.i:                               ; preds = %1
  %6 = ptrtoint ptr %4 to i64
  %7 = ptrtoint ptr %5 to i64
  %8 = sub i64 %6, %7
  %9 = ashr exact i64 %8, 3
  %umax.i = tail call i64 @llvm.umax.i64(i64 %9, i64 1)
  br label %.lr.ph.i

.lr.ph.i:                                         ; preds = %.lr.ph.i, %.lr.ph.preheader.i
  %.059.i = phi i64 [ 0, %.lr.ph.preheader.i ], [ %12, %.lr.ph.i ]
  %10 = getelementptr inbounds nuw i64, ptr %5, i64 %.059.i
  %11 = load i64, ptr %10, align 8
  %.not.not.i.not = icmp ne i64 %11, 0
  %12 = add nuw i64 %.059.i, 1
  %exitcond.not.i = icmp eq i64 %12, %umax.i
  %or.cond = select i1 %.not.not.i.not, i1 true, i1 %exitcond.not.i
  br i1 %or.cond, label %_ZNK5boost14dynamic_bitsetImSaImEE3anyEv.exit, label %.lr.ph.i, !llvm.loop !9

_ZNK5boost14dynamic_bitsetImSaImEE3anyEv.exit:    ; preds = %.lr.ph.i, %1
  %.not7.lcssa.i = phi i1 [ false, %1 ], [ %.not.not.i.not, %.lr.ph.i ]
  ret i1 %.not7.lcssa.i
}